target datalayout = "e-m:e-p270:32:32-p271:32:32-p272:64:64-i64:64-i128:128-f80:128-n8:16:32:64-S128"
target triple = "x86_64-pc-linux-gnu"

%struct._zend_executor_globals = type { %struct._zval_struct, %struct._zval_struct, [32 x ptr], ptr, ptr, %struct._zend_array, %struct._zend_array, ptr, i32, i32, ptr, ptr, ptr, ptr, ptr, ptr, i64, ptr, ptr, i32, i32, i64, i32, i32, i32, i8, i8, %struct.zend_atomic_bool_s, %struct.zend_atomic_bool_s, ptr, i64, ptr, ptr, %struct._zend_array, %struct._zend_array, i32, i8, %struct._zval_struct, %struct._zval_struct, %struct._zend_stack, %struct._zend_stack, %struct._zend_stack, ptr, i32, i32, i64, ptr, ptr, ptr, %struct._zend_objects_store, ptr, ptr, ptr, [3 x %struct._zend_op], ptr, i8, i8, i64, i32, i32, ptr, [16 x %struct._HashTableIterator], ptr, %union._zend_function, %struct._zend_op, %struct._zend_array, i64, %struct.zend_get_gc_buffer, ptr, ptr, ptr, i64, i8, i32, ptr, ptr, i64, %struct._zend_call_stack, i64, i64, [6 x ptr] }
%struct.zend_atomic_bool_s = type { i8 }
%struct._zval_struct = type { %union._zend_value, %union.anon, %union.anon.2 }
%union._zend_value = type { i64 }
%union.anon = type { i32 }
%union.anon.2 = type { i32 }
%struct._zend_stack = type { i32, i32, i32, ptr }
%struct._zend_objects_store = type { ptr, i32, i32, i32 }
%struct._HashTableIterator = type { ptr, i32, i32 }
%union._zend_function = type { %struct._zend_op_array }
%struct._zend_op_array = type { i8, [3 x i8], i32, ptr, ptr, ptr, i32, i32, ptr, ptr, ptr, ptr, i32, i32, i32, i32, ptr, ptr, ptr, ptr, ptr, i32, i32, ptr, ptr, ptr, i32, i32, i32, i32, ptr, ptr, [6 x ptr] }
%struct._zend_op = type { ptr, %union._znode_op, %union._znode_op, %union._znode_op, i32, i32, i8, i8, i8, i8 }
%union._znode_op = type { i32 }
%struct._zend_array = type { %struct._zend_refcounted_h, %union.anon.4, i32, %union.anon.6, i32, i32, i32, i32, i64, ptr }
%struct._zend_refcounted_h = type { i32, %union.anon.3 }
%union.anon.3 = type { i32 }
%union.anon.4 = type { i32 }
%union.anon.6 = type { ptr }
%struct.zend_get_gc_buffer = type { ptr, ptr, ptr }
%struct._zend_call_stack = type { ptr, i64 }
%struct._zend_string = type { %struct._zend_refcounted_h, i64, i64, [1 x i8] }
%struct._zend_execute_data = type { ptr, ptr, ptr, ptr, %struct._zval_struct, ptr, ptr, ptr, ptr }

@.str = private unnamed_addr constant [2 x i8] c"r\00", align 1
@.str.2 = private unnamed_addr constant [3 x i8] c"rb\00", align 1
@.str.7 = private unnamed_addr constant [32 x i8] c"must not contain any null bytes\00", align 1
@executor_globals = external global %struct._zend_executor_globals, align 8
@.str.8 = private unnamed_addr constant [16 x i8] c"cannot be empty\00", align 1
@.str.9 = private unnamed_addr constant [23 x i8] c"Unable to execute '%s'\00", align 1

; Function Attrs: nounwind uwtable
define hidden void @zif_shell_exec(ptr noundef %0, ptr noundef %1) #0 {
  %3 = alloca ptr, align 8
  %4 = alloca ptr, align 8
  %5 = alloca i1, align 1
  %6 = alloca ptr, align 8
  %7 = alloca ptr, align 8
  %8 = alloca i8, align 1
  %9 = alloca i32, align 4
  %10 = alloca i8, align 1
  %11 = alloca ptr, align 8
  %12 = alloca ptr, align 8
  %13 = alloca i8, align 1
  %14 = alloca i32, align 4
  %15 = alloca i32, align 4
  %16 = alloca i1, align 1
  %17 = alloca ptr, align 8
  %18 = alloca ptr, align 8
  %19 = alloca ptr, align 8
  %20 = alloca i8, align 1
  %21 = alloca i32, align 4
  %22 = alloca ptr, align 8
  %23 = alloca ptr, align 8
  %24 = alloca ptr, align 8
  %25 = alloca ptr, align 8
  %26 = alloca ptr, align 8
  %27 = alloca i64, align 8
  %28 = alloca ptr, align 8
  %29 = alloca ptr, align 8
  %30 = alloca i32, align 4
  %31 = alloca i32, align 4
  %32 = alloca i32, align 4
  %33 = alloca i32, align 4
  %34 = alloca i32, align 4
  %35 = alloca ptr, align 8
  %36 = alloca ptr, align 8
  %37 = alloca i32, align 4
  %38 = alloca ptr, align 8
  %39 = alloca i8, align 1
  %40 = alloca i8, align 1
  %41 = alloca i32, align 4
  %42 = alloca ptr, align 8
  %43 = alloca ptr, align 8
  store ptr %0, ptr %23, align 8
  store ptr %1, ptr %24, align 8
  br label %44

44:                                               ; preds = %2
  store i32 0, ptr %30, align 4
  store i32 1, ptr %31, align 4
  store i32 1, ptr %32, align 4
  %45 = load ptr, ptr %23, align 8
  %46 = getelementptr inbounds %struct._zend_execute_data, ptr %45, i32 0, i32 4
  %47 = getelementptr inbounds %struct._zval_struct, ptr %46, i32 0, i32 2
  %48 = load i32, ptr %47, align 4
  store i32 %48, ptr %33, align 4
  store i32 0, ptr %34, align 4
  store ptr null, ptr %36, align 8
  store i32 0, ptr %37, align 4
  store ptr null, ptr %38, align 8
  store i8 0, ptr %39, align 1
  store i8 0, ptr %40, align 1
  store i32 0, ptr %41, align 4
  br label %49

49:                                               ; preds = %44
  %50 = load i32, ptr %33, align 4
  %51 = load i32, ptr %31, align 4
  %52 = icmp ult i32 %50, %51
  %53 = xor i1 %52, true
  %54 = xor i1 %53, true
  %55 = zext i1 %54 to i32
  %56 = sext i32 %55 to i64
  %57 = icmp ne i64 %56, 0
  br i1 %57, label %67, label %58

58:                                               ; preds = %49
  %59 = load i32, ptr %33, align 4
  %60 = load i32, ptr %32, align 4
  %61 = icmp ugt i32 %59, %60
  %62 = xor i1 %61, true
  %63 = xor i1 %62, true
  %64 = zext i1 %63 to i32
  %65 = sext i32 %64 to i64
  %66 = icmp ne i64 %65, 0
  br i1 %66, label %67, label %70

67:                                               ; preds = %58, %49
  %68 = load i32, ptr %31, align 4
  %69 = load i32, ptr %32, align 4
  call void @zend_wrong_parameters_count_error(i32 noundef %68, i32 noundef %69)
  store i32 1, ptr %41, align 4
  br label %201

70:                                               ; preds = %58
  %71 = load ptr, ptr %23, align 8
  %72 = getelementptr inbounds %struct._zval_struct, ptr %71, i64 4
  store ptr %72, ptr %35, align 8
  %73 = load i32, ptr %34, align 4
  %74 = add i32 %73, 1
  store i32 %74, ptr %34, align 4
  %75 = load i32, ptr %34, align 4
  %76 = load i32, ptr %31, align 4
  %77 = icmp ule i32 %75, %76
  br i1 %77, label %83, label %78

78:                                               ; preds = %70
  %79 = load i8, ptr %40, align 1
  %80 = trunc i8 %79 to i1
  %81 = zext i1 %80 to i32
  %82 = icmp eq i32 %81, 1
  br label %83

83:                                               ; preds = %78, %70
  %84 = phi i1 [ true, %70 ], [ %82, %78 ]
  call void @llvm.assume(i1 %84)
  %85 = load i32, ptr %34, align 4
  %86 = load i32, ptr %31, align 4
  %87 = icmp ugt i32 %85, %86
  br i1 %87, label %93, label %88

88:                                               ; preds = %83
  %89 = load i8, ptr %40, align 1
  %90 = trunc i8 %89 to i1
  %91 = zext i1 %90 to i32
  %92 = icmp eq i32 %91, 0
  br label %93

93:                                               ; preds = %88, %83
  %94 = phi i1 [ true, %83 ], [ %92, %88 ]
  call void @llvm.assume(i1 %94)
  %95 = load i8, ptr %40, align 1
  %96 = trunc i8 %95 to i1
  br i1 %96, label %97, label %108

97:                                               ; preds = %93
  %98 = load i32, ptr %34, align 4
  %99 = load i32, ptr %33, align 4
  %100 = icmp ugt i32 %98, %99
  %101 = xor i1 %100, true
  %102 = xor i1 %101, true
  %103 = zext i1 %102 to i32
  %104 = sext i32 %103 to i64
  %105 = icmp ne i64 %104, 0
  br i1 %105, label %106, label %107

106:                                              ; preds = %97
  br label %201

107:                                              ; preds = %97
  br label %108

108:                                              ; preds = %107, %93
  %109 = load ptr, ptr %35, align 8
  %110 = getelementptr inbounds %struct._zval_struct, ptr %109, i32 1
  store ptr %110, ptr %35, align 8
  %111 = load ptr, ptr %35, align 8
  store ptr %111, ptr %36, align 8
  %112 = load ptr, ptr %36, align 8
  %113 = load i32, ptr %34, align 4
  store ptr %112, ptr %17, align 8
  store ptr %26, ptr %18, align 8
  store ptr %27, ptr %19, align 8
  store i8 0, ptr %20, align 1
  store i32 %113, ptr %21, align 4
  %114 = load ptr, ptr %17, align 8
  %115 = load i8, ptr %20, align 1
  %116 = trunc i8 %115 to i1
  %117 = load i32, ptr %21, align 4
  store ptr %114, ptr %11, align 8
  store ptr %22, ptr %12, align 8
  %118 = zext i1 %116 to i8
  store i8 %118, ptr %13, align 1
  store i32 %117, ptr %14, align 4
  %119 = load ptr, ptr %11, align 8
  %120 = load ptr, ptr %12, align 8
  %121 = load i8, ptr %13, align 1
  %122 = trunc i8 %121 to i1
  %123 = load i32, ptr %14, align 4
  store ptr %119, ptr %6, align 8
  store ptr %120, ptr %7, align 8
  %124 = zext i1 %122 to i8
  store i8 %124, ptr %8, align 1
  store i32 %123, ptr %9, align 4
  store i8 0, ptr %10, align 1
  %125 = load ptr, ptr %6, align 8
  store ptr %125, ptr %3, align 8
  %126 = load ptr, ptr %3, align 8
  %127 = getelementptr inbounds %struct._zval_struct, ptr %126, i32 0, i32 1
  %128 = load i8, ptr %127, align 8
  %129 = zext i8 %128 to i32
  %130 = icmp eq i32 %129, 6
  br i1 %130, label %131, label %135

131:                                              ; preds = %108
  %132 = load ptr, ptr %6, align 8
  %133 = load ptr, ptr %132, align 8
  %134 = load ptr, ptr %7, align 8
  store ptr %133, ptr %134, align 8
  br label %160

135:                                              ; preds = %108
  %136 = load i8, ptr %8, align 1
  %137 = trunc i8 %136 to i1
  br i1 %137, label %138, label %147

138:                                              ; preds = %135
  %139 = load ptr, ptr %6, align 8
  store ptr %139, ptr %4, align 8
  %140 = load ptr, ptr %4, align 8
  %141 = getelementptr inbounds %struct._zval_struct, ptr %140, i32 0, i32 1
  %142 = load i8, ptr %141, align 8
  %143 = zext i8 %142 to i32
  %144 = icmp eq i32 %143, 1
  br i1 %144, label %145, label %147

145:                                              ; preds = %138
  %146 = load ptr, ptr %7, align 8
  store ptr null, ptr %146, align 8
  br label %160

147:                                              ; preds = %138, %135
  %148 = load i8, ptr %10, align 1
  %149 = trunc i8 %148 to i1
  br i1 %149, label %150, label %155

150:                                              ; preds = %147
  %151 = load ptr, ptr %6, align 8
  %152 = load ptr, ptr %7, align 8
  %153 = load i32, ptr %9, align 4
  %154 = call zeroext i1 @zend_flf_parse_arg_str_slow(ptr noundef %151, ptr noundef %152, i32 noundef %153) #10
  store i1 %154, ptr %5, align 1
  br label %161

155:                                              ; preds = %147
  %156 = load ptr, ptr %6, align 8
  %157 = load ptr, ptr %7, align 8
  %158 = load i32, ptr %9, align 4
  %159 = call zeroext i1 @zend_parse_arg_str_slow(ptr noundef %156, ptr noundef %157, i32 noundef %158) #10
  store i1 %159, ptr %5, align 1
  br label %161

160:                                              ; preds = %145, %131
  store i1 true, ptr %5, align 1
  br label %161

161:                                              ; preds = %160, %155, %150
  %162 = load i1, ptr %5, align 1
  br i1 %162, label %164, label %163

163:                                              ; preds = %161
  store i1 false, ptr %16, align 1
  br label %183

164:                                              ; preds = %161
  %165 = load i8, ptr %20, align 1
  %166 = trunc i8 %165 to i1
  br i1 %166, label %167, label %174

167:                                              ; preds = %164
  %168 = load ptr, ptr %22, align 8
  %169 = icmp ne ptr %168, null
  %170 = xor i1 %169, true
  br i1 %170, label %171, label %174

171:                                              ; preds = %167
  %172 = load ptr, ptr %18, align 8
  store ptr null, ptr %172, align 8
  %173 = load ptr, ptr %19, align 8
  store i64 0, ptr %173, align 8
  br label %182

174:                                              ; preds = %167, %164
  %175 = load ptr, ptr %22, align 8
  %176 = getelementptr inbounds %struct._zend_string, ptr %175, i32 0, i32 3
  %177 = load ptr, ptr %18, align 8
  store ptr %176, ptr %177, align 8
  %178 = load ptr, ptr %22, align 8
  %179 = getelementptr inbounds %struct._zend_string, ptr %178, i32 0, i32 2
  %180 = load i64, ptr %179, align 8
  %181 = load ptr, ptr %19, align 8
  store i64 %180, ptr %181, align 8
  br label %182

182:                                              ; preds = %174, %171
  store i1 true, ptr %16, align 1
  br label %183

183:                                              ; preds = %182, %163
  %184 = load i1, ptr %16, align 1
  %185 = xor i1 %184, true
  %186 = xor i1 %185, true
  %187 = xor i1 %186, true
  %188 = zext i1 %187 to i32
  %189 = sext i32 %188 to i64
  %190 = icmp ne i64 %189, 0
  br i1 %190, label %191, label %192

191:                                              ; preds = %183
  store i32 4, ptr %37, align 4
  store i32 9, ptr %41, align 4
  br label %201

192:                                              ; preds = %183
  %193 = load i32, ptr %34, align 4
  %194 = load i32, ptr %32, align 4
  %195 = icmp eq i32 %193, %194
  br i1 %195, label %199, label %196

196:                                              ; preds = %192
  %197 = load i32, ptr %32, align 4
  %198 = icmp eq i32 %197, -1
  br label %199

199:                                              ; preds = %196, %192
  %200 = phi i1 [ true, %192 ], [ %198, %196 ]
  call void @llvm.assume(i1 %200)
  br label %201

201:                                              ; preds = %199, %191, %106, %67
  %202 = load i32, ptr %41, align 4
  %203 = icmp ne i32 %202, 0
  %204 = xor i1 %203, true
  %205 = xor i1 %204, true
  %206 = zext i1 %205 to i32
  %207 = sext i32 %206 to i64
  %208 = icmp ne i64 %207, 0
  br i1 %208, label %209, label %215

209:                                              ; preds = %201
  %210 = load i32, ptr %41, align 4
  %211 = load i32, ptr %34, align 4
  %212 = load ptr, ptr %38, align 8
  %213 = load i32, ptr %37, align 4
  %214 = load ptr, ptr %36, align 8
  call void @zend_wrong_parameter_error(i32 noundef %210, i32 noundef %211, ptr noundef %212, i32 noundef %213, ptr noundef %214)
  br label %279

215:                                              ; preds = %201
  br label %216

216:                                              ; preds = %215
  %217 = load i64, ptr %27, align 8
  %218 = icmp ne i64 %217, 0
  br i1 %218, label %224, label %219

219:                                              ; preds = %216
  call void (i32, ptr, ...) @zend_argument_value_error(i32 noundef 1, ptr noundef @.str.8)
  br label %220

220:                                              ; preds = %219
  %221 = load ptr, ptr getelementptr inbounds (%struct._zend_executor_globals, ptr @executor_globals, i32 0, i32 50), align 8
  %222 = icmp ne ptr %221, null
  call void @llvm.assume(i1 %222)
  br label %279

223:                                              ; No predecessors!
  br label %224

224:                                              ; preds = %223, %216
  %225 = load ptr, ptr %26, align 8
  %226 = call i64 @strlen(ptr noundef %225) #15
  %227 = load i64, ptr %27, align 8
  %228 = icmp ne i64 %226, %227
  br i1 %228, label %229, label %234

229:                                              ; preds = %224
  call void (i32, ptr, ...) @zend_argument_value_error(i32 noundef 1, ptr noundef @.str.7)
  br label %230

230:                                              ; preds = %229
  %231 = load ptr, ptr getelementptr inbounds (%struct._zend_executor_globals, ptr @executor_globals, i32 0, i32 50), align 8
  %232 = icmp ne ptr %231, null
  call void @llvm.assume(i1 %232)
  br label %279

233:                                              ; No predecessors!
  br label %234

234:                                              ; preds = %233, %224
  %235 = load ptr, ptr %26, align 8
  %236 = call noalias ptr @popen(ptr noundef %235, ptr noundef @.str)
  store ptr %236, ptr %25, align 8
  %237 = icmp eq ptr %236, null
  br i1 %237, label %238, label %246

238:                                              ; preds = %234
  %239 = load ptr, ptr %26, align 8
  call void (ptr, i32, ptr, ...) @php_error_docref(ptr noundef null, i32 noundef 2, ptr noundef @.str.9, ptr noundef %239)
  br label %240

240:                                              ; preds = %238
  br label %241

241:                                              ; preds = %240
  %242 = load ptr, ptr %24, align 8
  %243 = getelementptr inbounds %struct._zval_struct, ptr %242, i32 0, i32 1
  store i32 2, ptr %243, align 8
  br label %244

244:                                              ; preds = %241
  br label %279

245:                                              ; No predecessors!
  br label %246

246:                                              ; preds = %245, %234
  %247 = load ptr, ptr %25, align 8
  %248 = call ptr @_php_stream_fopen_from_pipe(ptr noundef %247, ptr noundef @.str.2)
  store ptr %248, ptr %29, align 8
  %249 = load ptr, ptr %29, align 8
  %250 = call ptr @_php_stream_copy_to_mem(ptr noundef %249, i64 noundef -1, i32 noundef 0)
  store ptr %250, ptr %28, align 8
  %251 = load ptr, ptr %29, align 8
  %252 = call i32 @_php_stream_free(ptr noundef %251, i32 noundef 3)
  %253 = load ptr, ptr %28, align 8
  %254 = icmp ne ptr %253, null
  br i1 %254, label %255, label %279

255:                                              ; preds = %246
  %256 = load ptr, ptr %28, align 8
  %257 = getelementptr inbounds %struct._zend_string, ptr %256, i32 0, i32 2
  %258 = load i64, ptr %257, align 8
  %259 = icmp ugt i64 %258, 0
  br i1 %259, label %260, label %279

260:                                              ; preds = %255
  br label %261

261:                                              ; preds = %260
  %262 = load ptr, ptr %24, align 8
  store ptr %262, ptr %42, align 8
  %263 = load ptr, ptr %28, align 8
  store ptr %263, ptr %43, align 8
  %264 = load ptr, ptr %43, align 8
  %265 = load ptr, ptr %42, align 8
  %266 = getelementptr inbounds %struct._zval_struct, ptr %265, i32 0, i32 0
  store ptr %264, ptr %266, align 8
  %267 = load ptr, ptr %43, align 8
  %268 = getelementptr inbounds %struct._zend_string, ptr %267, i32 0, i32 0
  %269 = getelementptr inbounds %struct._zend_refcounted_h, ptr %268, i32 0, i32 1
  %270 = load i32, ptr %269, align 4
  store i32 %270, ptr %15, align 4
  %271 = load i32, ptr %15, align 4
  %272 = and i32 %271, 1008
  %273 = and i32 %272, 64
  %274 = icmp ne i32 %273, 0
  %275 = select i1 %274, i32 6, i32 262
  %276 = load ptr, ptr %42, align 8
  %277 = getelementptr inbounds %struct._zval_struct, ptr %276, i32 0, i32 1
  store i32 %275, ptr %277, align 8
  br label %278

278:                                              ; preds = %261
  br label %279

279:                                              ; preds = %278, %255, %246, %244, %230, %220, %209
  ret void
}