; Function Attrs: nounwind uwtable
define hidden void @zif_shell_exec(ptr noundef %0, ptr nocapture noundef writeonly %1) local_unnamed_addr #0 {
  %3 = alloca ptr, align 8
  %4 = getelementptr inbounds i8, ptr %0, i64 44
  %5 = load i32, ptr %4, align 4
  %cond = icmp eq i32 %5, 1
  br i1 %cond, label %6, label %.thread99

.thread99:                                        ; preds = %2
  tail call void @zend_wrong_parameters_count_error(i32 noundef 1, i32 noundef 1) #10
  br label %14

6:                                                ; preds = %2
  %7 = getelementptr inbounds i8, ptr %0, i64 80
  %8 = getelementptr inbounds i8, ptr %0, i64 88
  %9 = load i8, ptr %8, align 8
  %10 = icmp eq i8 %9, 6
  br i1 %10, label %.thread, label %12

.thread:                                          ; preds = %6
  %11 = load ptr, ptr %7, align 8
  store ptr %11, ptr %3, align 8
  br label %15

12:                                               ; preds = %6
  %13 = call zeroext i1 @zend_parse_arg_str_slow(ptr noundef nonnull %7, ptr noundef nonnull %3, i32 noundef 1) #10
  br i1 %13, label %._crit_edge, label %14

._crit_edge:                                      ; preds = %12
  %.pre = load ptr, ptr %3, align 8
  br label %15

14:                                               ; preds = %12, %.thread99
  %.073110 = phi i32 [ 1, %.thread99 ], [ 9, %12 ]
  %.074109 = phi i32 [ 0, %.thread99 ], [ 1, %12 ]
  %.075108 = phi ptr [ null, %.thread99 ], [ %7, %12 ]
  %.076107 = phi i32 [ 0, %.thread99 ], [ 4, %12 ]
  call void @zend_wrong_parameter_error(i32 noundef %.073110, i32 noundef %.074109, ptr noundef null, i32 noundef %.076107, ptr noundef %.075108) #10
  br label %46

15:                                               ; preds = %._crit_edge, %.thread
  %16 = phi ptr [ %.pre, %._crit_edge ], [ %11, %.thread ]
  %17 = getelementptr inbounds i8, ptr %16, i64 16
  %18 = load i64, ptr %17, align 8
  %19 = getelementptr inbounds i8, ptr %16, i64 24
  %.not89 = icmp eq i64 %18, 0
  br i1 %.not89, label %20, label %23

20:                                               ; preds = %15
  call void (i32, ptr, ...) @zend_argument_value_error(i32 noundef 1, ptr noundef nonnull @.str.8) #10
  %21 = load ptr, ptr getelementptr inbounds (%struct._zend_executor_globals, ptr @executor_globals, i64 0, i32 50), align 8
  %22 = icmp ne ptr %21, null
  call void @llvm.assume(i1 %22)
  br label %46

23:                                               ; preds = %15
  %24 = call i64 @strlen(ptr noundef nonnull dereferenceable(1) %19) #14
  %.not90 = icmp eq i64 %24, %18
  br i1 %.not90, label %28, label %25

25:                                               ; preds = %23
  call void (i32, ptr, ...) @zend_argument_value_error(i32 noundef 1, ptr noundef nonnull @.str.7) #10
  %26 = load ptr, ptr getelementptr inbounds (%struct._zend_executor_globals, ptr @executor_globals, i64 0, i32 50), align 8
  %27 = icmp ne ptr %26, null
  call void @llvm.assume(i1 %27)
  br label %46

28:                                               ; preds = %23
  %29 = call noalias ptr @popen(ptr noundef nonnull %19, ptr noundef nonnull @.str)
  %30 = icmp eq ptr %29, null
  br i1 %30, label %31, label %33

31:                                               ; preds = %28
  call void (ptr, i32, ptr, ...) @php_error_docref(ptr noundef null, i32 noundef 2, ptr noundef nonnull @.str.9, ptr noundef nonnull %19) #10
  %32 = getelementptr inbounds i8, ptr %1, i64 8
  store i32 2, ptr %32, align 8
  br label %46

33:                                               ; preds = %28
  %34 = call ptr @_php_stream_fopen_from_pipe(ptr noundef nonnull %29, ptr noundef nonnull @.str.2) #10
  %35 = call ptr @_php_stream_copy_to_mem(ptr noundef %34, i64 noundef -1, i32 noundef 0) #10
  %36 = call i32 @_php_stream_free(ptr noundef %34, i32 noundef 3) #10
  %.not91 = icmp eq ptr %35, null
  br i1 %.not91, label %46, label %37

37:                                               ; preds = %33
  %38 = getelementptr inbounds i8, ptr %35, i64 16
  %39 = load i64, ptr %38, align 8
  %.not92 = icmp eq i64 %39, 0
  br i1 %.not92, label %46, label %40

40:                                               ; preds = %37
  store ptr %35, ptr %1, align 8
  %41 = getelementptr inbounds i8, ptr %35, i64 4
  %42 = load i32, ptr %41, align 4
  %43 = and i32 %42, 64
  %.not93 = icmp eq i32 %43, 0
  %44 = select i1 %.not93, i32 262, i32 6
  %45 = getelementptr inbounds i8, ptr %1, i64 8
  store i32 %44, ptr %45, align 8
  br label %46

46:                                               ; preds = %40, %37, %33, %31, %25, %20, %14
  ret void
}